target datalayout = "e-m:e-p270:32:32-p271:32:32-p272:64:64-i64:64-i128:128-f80:128-n8:16:32:64-S128"
target triple = "x86_64-pc-linux-gnu"

%class.btVector3 = type { [4 x float] }
%class.btSoftRigidDynamicsWorld = type <{ %class.btDiscreteDynamicsWorld.base, [4 x i8], %class.btAlignedObjectArray.8, i32, i8, i8, i8, i8, %struct.btSoftBodyWorldInfo, ptr, i8, [7 x i8] }>
%class.btDiscreteDynamicsWorld.base = type <{ %class.btDynamicsWorld, %class.btAlignedObjectArray.0, ptr, ptr, ptr, %class.btAlignedObjectArray.0, %class.btAlignedObjectArray.2, %class.btVector3, float, float, i8, i8, i8, i8, [4 x i8], %class.btAlignedObjectArray.4, i32, i8, [3 x i8], %class.btAlignedObjectArray.6, %class.btSpinMutex }>
%class.btDynamicsWorld = type { %class.btCollisionWorld.base, ptr, ptr, ptr, %struct.btContactSolverInfo }
%class.btCollisionWorld.base = type <{ ptr, %class.btAlignedObjectArray, ptr, %struct.btDispatcherInfo, ptr, ptr, i8 }>
%class.btAlignedObjectArray = type <{ [4 x i8], i32, i32, [4 x i8], ptr, i8, [7 x i8] }>
%struct.btDispatcherInfo = type <{ float, i32, i32, float, i8, [7 x i8], ptr, i8, i8, i8, i8, float, i8, [3 x i8], float, i8, [7 x i8] }>
%struct.btContactSolverInfo = type { %struct.btContactSolverInfoData }
%struct.btContactSolverInfoData = type { float, float, float, float, float, i32, float, float, float, float, float, float, float, float, float, float, i32, float, float, float, float, float, i32, i32, i32, float, float, float, float, i8, i8, i32, i32 }
%class.btAlignedObjectArray.0 = type <{ [4 x i8], i32, i32, [4 x i8], ptr, i8, [7 x i8] }>
%class.btAlignedObjectArray.2 = type <{ [4 x i8], i32, i32, [4 x i8], ptr, i8, [7 x i8] }>
%class.btAlignedObjectArray.4 = type <{ [4 x i8], i32, i32, [4 x i8], ptr, i8, [7 x i8] }>
%class.btAlignedObjectArray.6 = type <{ [4 x i8], i32, i32, [4 x i8], ptr, i8, [7 x i8] }>
%class.btSpinMutex = type { i32 }
%class.btAlignedObjectArray.8 = type <{ [4 x i8], i32, i32, [4 x i8], ptr, i8, [7 x i8] }>
%struct.btSoftBodyWorldInfo = type { float, float, float, float, %class.btVector3, ptr, ptr, %class.btVector3, %struct.btSparseSdf }
%struct.btSparseSdf = type { %class.btAlignedObjectArray.10, float, float, i32, i32, i32, i32, i32, [4 x i8] }
%class.btAlignedObjectArray.10 = type <{ [4 x i8], i32, i32, [4 x i8], ptr, i8, [7 x i8] }>
%class.btCollisionWorld = type <{ ptr, %class.btAlignedObjectArray, ptr, %struct.btDispatcherInfo, ptr, ptr, i8, [7 x i8] }>

; Function Attrs: inlinehint mustprogress nounwind uwtable
define linkonce_odr dso_local noundef nonnull align 8 dereferenceable(8) ptr @_ZN20btAlignedObjectArrayIP10btSoftBodyEixEi(ptr noundef nonnull align 8 dereferenceable(25) %0, i32 noundef %1) #5 comdat align 2 {
  %3 = alloca ptr, align 8
  %4 = alloca i32, align 4
  store ptr %0, ptr %3, align 8, !tbaa !77
  store i32 %1, ptr %4, align 4, !tbaa !9
  %5 = load ptr, ptr %3, align 8
  %6 = getelementptr inbounds nuw %class.btAlignedObjectArray.8, ptr %5, i32 0, i32 4
  %7 = load ptr, ptr %6, align 8, !tbaa !114
  %8 = load i32, ptr %4, align 4, !tbaa !9
  %9 = sext i32 %8 to i64
  %10 = getelementptr inbounds ptr, ptr %7, i64 %9
  ret ptr %10
}

; Function Attrs: inlinehint mustprogress nounwind uwtable
define linkonce_odr dso_local noundef i32 @_ZNK20btAlignedObjectArrayIP10btSoftBodyE4sizeEv(ptr noundef nonnull align 8 dereferenceable(25) %0) #5 comdat align 2 {
  %2 = alloca ptr, align 8
  store ptr %0, ptr %2, align 8, !tbaa !77
  %3 = load ptr, ptr %2, align 8
  %4 = getelementptr inbounds nuw %class.btAlignedObjectArray.8, ptr %3, i32 0, i32 1
  %5 = load i32, ptr %4, align 4, !tbaa !113
  ret i32 %5
}

; Function Attrs: mustprogress uwtable
define dso_local void @_ZN24btSoftRigidDynamicsWorld14debugDrawWorldEv(ptr noundef nonnull align 8 dereferenceable(689) %0) unnamed_addr #2 align 2 {
  %2 = alloca ptr, align 8
  %3 = alloca i32, align 4
  %4 = alloca ptr, align 8
  store ptr %0, ptr %2, align 8, !tbaa !12
  %5 = load ptr, ptr %2, align 8
  call void @_ZN23btDiscreteDynamicsWorld14debugDrawWorldEv(ptr noundef nonnull align 8 dereferenceable(508) %5)
  %6 = load ptr, ptr %5, align 8, !tbaa !24
  %7 = getelementptr inbounds ptr, ptr %6, i64 5
  %8 = load ptr, ptr %7, align 8
  %9 = call noundef ptr %8(ptr noundef nonnull align 8 dereferenceable(121) %5)
  %10 = icmp ne ptr %9, null
  br i1 %10, label %11, label %90

11:                                               ; preds = %1
  call void @llvm.lifetime.start.p0(i64 4, ptr %3) #14
  store i32 0, ptr %3, align 4, !tbaa !9
  br label %12

12:                                               ; preds = %86, %11
  %13 = load i32, ptr %3, align 4, !tbaa !9
  %14 = getelementptr inbounds nuw %class.btSoftRigidDynamicsWorld, ptr %5, i32 0, i32 2
  %15 = call noundef i32 @_ZNK20btAlignedObjectArrayIP10btSoftBodyE4sizeEv(ptr noundef nonnull align 8 dereferenceable(25) %14)
  %16 = icmp slt i32 %13, %15
  br i1 %16, label %17, label %89

17:                                               ; preds = %12
  call void @llvm.lifetime.start.p0(i64 8, ptr %4) #14
  %18 = getelementptr inbounds nuw %class.btSoftRigidDynamicsWorld, ptr %5, i32 0, i32 2
  %19 = load i32, ptr %3, align 4, !tbaa !9
  %20 = call noundef nonnull align 8 dereferenceable(8) ptr @_ZN20btAlignedObjectArrayIP10btSoftBodyEixEi(ptr noundef nonnull align 8 dereferenceable(25) %18, i32 noundef %19)
  %21 = load ptr, ptr %20, align 8, !tbaa !110
  store ptr %21, ptr %4, align 8, !tbaa !110
  %22 = load ptr, ptr %5, align 8, !tbaa !24
  %23 = getelementptr inbounds ptr, ptr %22, i64 5
  %24 = load ptr, ptr %23, align 8
  %25 = call noundef ptr %24(ptr noundef nonnull align 8 dereferenceable(121) %5)
  %26 = icmp ne ptr %25, null
  br i1 %26, label %27, label %47

27:                                               ; preds = %17
  %28 = load ptr, ptr %5, align 8, !tbaa !24
  %29 = getelementptr inbounds ptr, ptr %28, i64 5
  %30 = load ptr, ptr %29, align 8
  %31 = call noundef ptr %30(ptr noundef nonnull align 8 dereferenceable(121) %5)
  %32 = load ptr, ptr %31, align 8, !tbaa !24
  %33 = getelementptr inbounds ptr, ptr %32, i64 14
  %34 = load ptr, ptr %33, align 8
  %35 = call noundef i32 %34(ptr noundef nonnull align 8 dereferenceable(8) %31)
  %36 = and i32 %35, 1
  %37 = icmp ne i32 %36, 0
  br i1 %37, label %38, label %47

38:                                               ; preds = %27
  %39 = load ptr, ptr %4, align 8, !tbaa !110
  %40 = getelementptr inbounds nuw %class.btCollisionWorld, ptr %5, i32 0, i32 5
  %41 = load ptr, ptr %40, align 8, !tbaa !212
  call void @_ZN17btSoftBodyHelpers9DrawFrameEP10btSoftBodyP12btIDebugDraw(ptr noundef %39, ptr noundef %41)
  %42 = load ptr, ptr %4, align 8, !tbaa !110
  %43 = getelementptr inbounds nuw %class.btCollisionWorld, ptr %5, i32 0, i32 5
  %44 = load ptr, ptr %43, align 8, !tbaa !212
  %45 = getelementptr inbounds nuw %class.btSoftRigidDynamicsWorld, ptr %5, i32 0, i32 3
  %46 = load i32, ptr %45, align 8, !tbaa !66
  call void @_ZN17btSoftBodyHelpers4DrawEP10btSoftBodyP12btIDebugDrawi(ptr noundef %42, ptr noundef %44, i32 noundef %46)
  br label %47

47:                                               ; preds = %38, %27, %17
  %48 = getelementptr inbounds nuw %class.btCollisionWorld, ptr %5, i32 0, i32 5
  %49 = load ptr, ptr %48, align 8, !tbaa !212
  %50 = icmp ne ptr %49, null
  br i1 %50, label %51, label %85

51:                                               ; preds = %47
  %52 = getelementptr inbounds nuw %class.btCollisionWorld, ptr %5, i32 0, i32 5
  %53 = load ptr, ptr %52, align 8, !tbaa !212
  %54 = load ptr, ptr %53, align 8, !tbaa !24
  %55 = getelementptr inbounds ptr, ptr %54, i64 14
  %56 = load ptr, ptr %55, align 8
  %57 = call noundef i32 %56(ptr noundef nonnull align 8 dereferenceable(8) %53)
  %58 = and i32 %57, 2
  %59 = icmp ne i32 %58, 0
  br i1 %59, label %60, label %85

60:                                               ; preds = %51
  %61 = getelementptr inbounds nuw %class.btSoftRigidDynamicsWorld, ptr %5, i32 0, i32 4
  %62 = load i8, ptr %61, align 4, !tbaa !67, !range !108, !noundef !109
  %63 = trunc i8 %62 to i1
  br i1 %63, label %64, label %68

64:                                               ; preds = %60
  %65 = load ptr, ptr %4, align 8, !tbaa !110
  %66 = getelementptr inbounds nuw %class.btCollisionWorld, ptr %5, i32 0, i32 5
  %67 = load ptr, ptr %66, align 8, !tbaa !212
  call void @_ZN17btSoftBodyHelpers12DrawNodeTreeEP10btSoftBodyP12btIDebugDrawii(ptr noundef %65, ptr noundef %67, i32 noundef 0, i32 noundef -1)
  br label %68

68:                                               ; preds = %64, %60
  %69 = getelementptr inbounds nuw %class.btSoftRigidDynamicsWorld, ptr %5, i32 0, i32 5
  %70 = load i8, ptr %69, align 1, !tbaa !68, !range !108, !noundef !109
  %71 = trunc i8 %70 to i1
  br i1 %71, label %72, label %76

72:                                               ; preds = %68
  %73 = load ptr, ptr %4, align 8, !tbaa !110
  %74 = getelementptr inbounds nuw %class.btCollisionWorld, ptr %5, i32 0, i32 5
  %75 = load ptr, ptr %74, align 8, !tbaa !212
  call void @_ZN17btSoftBodyHelpers12DrawFaceTreeEP10btSoftBodyP12btIDebugDrawii(ptr noundef %73, ptr noundef %75, i32 noundef 0, i32 noundef -1)
  br label %76

76:                                               ; preds = %72, %68
  %77 = getelementptr inbounds nuw %class.btSoftRigidDynamicsWorld, ptr %5, i32 0, i32 6
  %78 = load i8, ptr %77, align 2, !tbaa !69, !range !108, !noundef !109
  %79 = trunc i8 %78 to i1
  br i1 %79, label %80, label %84

80:                                               ; preds = %76
  %81 = load ptr, ptr %4, align 8, !tbaa !110
  %82 = getelementptr inbounds nuw %class.btCollisionWorld, ptr %5, i32 0, i32 5
  %83 = load ptr, ptr %82, align 8, !tbaa !212
  call void @_ZN17btSoftBodyHelpers15DrawClusterTreeEP10btSoftBodyP12btIDebugDrawii(ptr noundef %81, ptr noundef %83, i32 noundef 0, i32 noundef -1)
  br label %84

84:                                               ; preds = %80, %76
  br label %85

85:                                               ; preds = %84, %51, %47
  call void @llvm.lifetime.end.p0(i64 8, ptr %4) #14
  br label %86

86:                                               ; preds = %85
  %87 = load i32, ptr %3, align 4, !tbaa !9
  %88 = add nsw i32 %87, 1
  store i32 %88, ptr %3, align 4, !tbaa !9
  br label %12, !llvm.loop !213

89:                                               ; preds = %12
  call void @llvm.lifetime.end.p0(i64 4, ptr %3) #14
  br label %90

90:                                               ; preds = %89, %1
  ret void
}